; Function Attrs: null_pointer_is_valid sspstrong uwtable
define ptr @dissect_e164_isdn(ptr noundef %0, ptr noundef %1, i32 noundef %2, i32 noundef %3, i32 noundef %4) local_unnamed_addr #1 {
  %6 = alloca ptr, align 8
  %7 = load i32, ptr @hf_E164_isdn, align 4
  call void @llvm.lifetime.start.p0(i64 8, ptr nonnull %6) #5
  switch i32 %4, label %9 [
    i32 2, label %dissect_e164.exit
    i32 1, label %8
  ]

8:                                                ; preds = %5
  br label %dissect_e164.exit

9:                                                ; preds = %5
  tail call void (ptr, ...) @proto_report_dissector_bug(ptr noundef nonnull @.str.483, ptr noundef nonnull @.str.484, i32 noundef 818) #6
  unreachable

dissect_e164.exit:                                ; preds = %5, %8
  %.0.i = phi i32 [ -2147483580, %8 ], [ %4, %5 ]
  %10 = tail call ptr @wmem_packet_scope()
  %11 = call ptr @proto_tree_add_item_ret_display_string(ptr noundef %1, i32 noundef %7, ptr noundef %0, i32 noundef %2, i32 noundef %3, i32 noundef %.0.i, ptr noundef %10, ptr noundef nonnull %6)
  %12 = load i32, ptr @ett_e164_msisdn, align 4
  %13 = call ptr @proto_item_add_subtree(ptr noundef %11, i32 noundef %12)
  call void @dissect_e164_cc(ptr noundef %0, ptr noundef %13, i32 noundef %2, i32 noundef %4)
  %14 = load ptr, ptr %6, align 8
  call void @llvm.lifetime.end.p0(i64 8, ptr nonnull %6) #5
  ret ptr %14
}